target datalayout = "e-m:e-p270:32:32-p271:32:32-p272:64:64-i64:64-i128:128-f80:128-n8:16:32:64-S128"
target triple = "x86_64-pc-linux-gnu"

%struct.psa_key_attributes_s = type { i16, i16, i32, %struct.psa_key_policy_s, i32 }
%struct.psa_key_policy_s = type { i32, i32, i32 }
%struct.psa_crypto_driver_pake_inputs_s = type { ptr, i64, ptr, i64, ptr, i64, %struct.psa_key_attributes_s, %struct.psa_pake_cipher_suite_s }
%struct.psa_pake_cipher_suite_s = type { i32, i8, i8, i16, i32 }

; Function Attrs: nounwind uwtable
define hidden i32 @psa_crypto_driver_pake_get_password(ptr noundef %0, ptr noundef %1, i64 noundef %2, ptr noundef %3) #0 {
  %5 = alloca i32, align 4
  %6 = alloca ptr, align 8
  %7 = alloca ptr, align 8
  %8 = alloca i64, align 8
  %9 = alloca ptr, align 8
  store ptr %0, ptr %6, align 8, !tbaa !132
  store ptr %1, ptr %7, align 8, !tbaa !29
  store i64 %2, ptr %8, align 8, !tbaa !20
  store ptr %3, ptr %9, align 8, !tbaa !32
  %10 = load ptr, ptr %6, align 8, !tbaa !132
  %11 = getelementptr inbounds nuw %struct.psa_crypto_driver_pake_inputs_s, ptr %10, i32 0, i32 1
  %12 = load i64, ptr %11, align 8, !tbaa !134
  %13 = icmp eq i64 %12, 0
  br i1 %13, label %14, label %15

14:                                               ; preds = %4
  store i32 -137, ptr %5, align 4
  br label %34

15:                                               ; preds = %4
  %16 = load i64, ptr %8, align 8, !tbaa !20
  %17 = load ptr, ptr %6, align 8, !tbaa !132
  %18 = getelementptr inbounds nuw %struct.psa_crypto_driver_pake_inputs_s, ptr %17, i32 0, i32 1
  %19 = load i64, ptr %18, align 8, !tbaa !134
  %20 = icmp ult i64 %16, %19
  br i1 %20, label %21, label %22

21:                                               ; preds = %15
  store i32 -138, ptr %5, align 4
  br label %34

22:                                               ; preds = %15
  %23 = load ptr, ptr %7, align 8, !tbaa !29
  %24 = load ptr, ptr %6, align 8, !tbaa !132
  %25 = getelementptr inbounds nuw %struct.psa_crypto_driver_pake_inputs_s, ptr %24, i32 0, i32 0
  %26 = load ptr, ptr %25, align 8, !tbaa !137
  %27 = load ptr, ptr %6, align 8, !tbaa !132
  %28 = getelementptr inbounds nuw %struct.psa_crypto_driver_pake_inputs_s, ptr %27, i32 0, i32 1
  %29 = load i64, ptr %28, align 8, !tbaa !134
  call void @llvm.memcpy.p0.p0.i64(ptr align 1 %23, ptr align 1 %26, i64 %29, i1 false)
  %30 = load ptr, ptr %6, align 8, !tbaa !132
  %31 = getelementptr inbounds nuw %struct.psa_crypto_driver_pake_inputs_s, ptr %30, i32 0, i32 1
  %32 = load i64, ptr %31, align 8, !tbaa !134
  %33 = load ptr, ptr %9, align 8, !tbaa !32
  store i64 %32, ptr %33, align 8, !tbaa !20
  store i32 0, ptr %5, align 4
  br label %34

34:                                               ; preds = %22, %21, %14
  %35 = load i32, ptr %5, align 4
  ret i32 %35
}