; Function Attrs: mustprogress nofree norecurse nosync nounwind willreturn memory(readwrite, inaccessiblemem: none) uwtable
define hidden range(i32 -138, 1) i32 @psa_crypto_driver_pake_get_password(ptr noundef readonly captures(none) %0, ptr noundef writeonly captures(none) %1, i64 noundef %2, ptr noundef writeonly captures(none) %3) local_unnamed_addr #18 {
  %5 = getelementptr inbounds nuw i8, ptr %0, i64 8
  %6 = load i64, ptr %5, align 8, !tbaa !110
  %7 = icmp eq i64 %6, 0
  br i1 %7, label %13, label %8

8:                                                ; preds = %4
  %9 = icmp ult i64 %2, %6
  br i1 %9, label %13, label %10

10:                                               ; preds = %8
  %11 = load ptr, ptr %0, align 8, !tbaa !113
  tail call void @llvm.memcpy.p0.p0.i64(ptr align 1 %1, ptr align 1 %11, i64 %6, i1 false)
  %12 = load i64, ptr %5, align 8, !tbaa !110
  store i64 %12, ptr %3, align 8, !tbaa !25
  br label %13

13:                                               ; preds = %8, %4, %10
  %.0 = phi i32 [ 0, %10 ], [ -137, %4 ], [ -138, %8 ]
  ret i32 %.0
}